; Function Attrs: mustprogress ssp uwtable
define void @_ZN6open3d9pipelines9color_map26SetProxyIntensityForVertexERKNS_8geometry12TriangleMeshERKSt6vectorINS2_5ImageESaIS7_EERKNS_7utility8optionalIS6_INS1_17ImageWarpingFieldESaISE_EEEERKNS_6camera23PinholeCameraTrajectoryERKS6_IS6_IiSaIiEESaISP_EERS6_IdSaIdEEi(ptr noundef nonnull align 8 dereferenceable(288) %0, ptr noundef nonnull align 8 dereferenceable(24) %1, ptr noundef nonnull align 8 dereferenceable(32) %2, ptr noundef nonnull align 8 dereferenceable(32) %3, ptr noundef nonnull align 8 dereferenceable(24) %4, ptr noundef nonnull align 8 dereferenceable(24) %5, i32 noundef %6) local_unnamed_addr #1 personality ptr @__gxx_personality_v0 {
  %8 = alloca i32, align 4
  %9 = alloca i64, align 8
  %10 = tail call i32 @__kmpc_global_thread_num(ptr nonnull @2)
  store i32 %6, ptr %8, align 4, !tbaa !27
  call void @llvm.lifetime.start.p0(i64 8, ptr nonnull %9) #25
  %11 = getelementptr inbounds nuw i8, ptr %0, i64 48
  %12 = getelementptr inbounds nuw i8, ptr %0, i64 56
  %13 = load ptr, ptr %12, align 8, !tbaa !644
  %14 = load ptr, ptr %11, align 8, !tbaa !647
  %15 = ptrtoint ptr %13 to i64
  %16 = ptrtoint ptr %14 to i64
  %17 = sub i64 %15, %16
  %18 = sdiv exact i64 %17, 24
  store i64 %18, ptr %9, align 8, !tbaa !48
  %19 = getelementptr inbounds nuw i8, ptr %5, i64 8
  %20 = load ptr, ptr %19, align 8, !tbaa !675
  %21 = load ptr, ptr %5, align 8, !tbaa !678
  %22 = ptrtoint ptr %20 to i64
  %23 = ptrtoint ptr %21 to i64
  %24 = sub i64 %22, %23
  %25 = ashr exact i64 %24, 3
  %26 = icmp ugt i64 %18, %25
  br i1 %26, label %27, label %29

27:                                               ; preds = %7
  %28 = sub nuw nsw i64 %18, %25
  tail call void @_ZNSt6vectorIdSaIdEE17_M_default_appendEm(ptr noundef nonnull align 8 dereferenceable(24) %5, i64 noundef %28)
  br label %_ZNSt6vectorIdSaIdEE6resizeEm.exit

29:                                               ; preds = %7
  %30 = icmp ult i64 %18, %25
  br i1 %30, label %31, label %_ZNSt6vectorIdSaIdEE6resizeEm.exit

31:                                               ; preds = %29
  %32 = getelementptr inbounds nuw double, ptr %21, i64 %18
  %.not.i.i = icmp eq ptr %20, %32
  br i1 %.not.i.i, label %_ZNSt6vectorIdSaIdEE6resizeEm.exit, label %_ZSt8_DestroyIPddEvT_S1_RSaIT0_E.exit.i.i

_ZSt8_DestroyIPddEvT_S1_RSaIT0_E.exit.i.i:        ; preds = %31
  store ptr %32, ptr %19, align 8, !tbaa !675
  br label %_ZNSt6vectorIdSaIdEE6resizeEm.exit

_ZNSt6vectorIdSaIdEE6resizeEm.exit:               ; preds = %27, %29, %31, %_ZSt8_DestroyIPddEvT_S1_RSaIT0_E.exit.i.i
  %33 = tail call noundef i32 @_ZN6open3d7utility18EstimateMaxThreadsEv()
  tail call void @__kmpc_push_num_threads(ptr nonnull @2, i32 %10, i32 %33)
  call void (ptr, i32, ptr, ...) @__kmpc_fork_call(ptr nonnull @2, i32 8, ptr nonnull @_ZN6open3d9pipelines9color_map26SetProxyIntensityForVertexERKNS_8geometry12TriangleMeshERKSt6vectorINS2_5ImageESaIS7_EERKNS_7utility8optionalIS6_INS1_17ImageWarpingFieldESaISE_EEEERKNS_6camera23PinholeCameraTrajectoryERKS6_IS6_IiSaIiEESaISP_EERS6_IdSaIdEEi.omp_outlined, ptr nonnull %9, ptr nonnull %5, ptr nonnull %4, ptr nonnull %2, ptr nonnull %1, ptr nonnull %0, ptr nonnull %3, ptr nonnull %8)
  call void @llvm.lifetime.end.p0(i64 8, ptr nonnull %9) #25
  ret void
}